; Function Attrs: mustprogress nofree norecurse nosync nounwind willreturn memory(write, argmem: readwrite, inaccessiblemem: none) uwtable
define internal void @"_ZNSt17_Function_handlerIFvbEZN9V3Options13parseOptsListEP8FileLineRKNSt7__cxx1112basic_stringIcSt11char_traitsIcESaIcEEEiPPcE4$_95E9_M_invokeERKSt9_Any_dataOb"(ptr noundef nonnull readonly align 8 captures(none) dereferenceable(16) %0, ptr noundef nonnull readonly align 1 captures(none) dereferenceable(1) %1) #30 align 2 {
  %.val = load ptr, ptr %0, align 8, !tbaa !909
  %.val2 = load i8, ptr %1, align 1, !tbaa !17, !range !172, !noundef !173
  %3 = getelementptr inbounds nuw i8, ptr %.val, i64 865
  store i8 %.val2, ptr %3, align 1, !tbaa !439
  %4 = getelementptr inbounds nuw i8, ptr %.val, i64 866
  store i8 %.val2, ptr %4, align 2, !tbaa !440
  ret void
}